target datalayout = "e-m:e-p270:32:32-p271:32:32-p272:64:64-i64:64-i128:128-f80:128-n8:16:32:64-S128"
target triple = "x86_64-pc-linux-gnu"

%struct.__loadu_ps = type { <4 x float> }
%struct.__storeu_ps = type { <4 x float> }
%struct.stbir__contributors = type { i32, i32 }

; Function Attrs: alwaysinline nounwind uwtable
define available_externally void @_mm_storeu_ps(ptr noundef %0, <4 x float> noundef %1) #2 {
  %3 = alloca ptr, align 8
  %4 = alloca <4 x float>, align 16
  store ptr %0, ptr %3, align 8, !tbaa !21
  store <4 x float> %1, ptr %4, align 16, !tbaa !12
  %5 = load <4 x float>, ptr %4, align 16, !tbaa !12
  %6 = load ptr, ptr %3, align 8, !tbaa !21
  %7 = getelementptr inbounds nuw %struct.__storeu_ps, ptr %6, i32 0, i32 0
  store <4 x float> %5, ptr %7, align 1, !tbaa !12
  ret void
}

; Function Attrs: alwaysinline nounwind uwtable
define available_externally <4 x float> @_mm_add_ps(<4 x float> noundef %0, <4 x float> noundef %1) #2 {
  %3 = alloca <4 x float>, align 16
  %4 = alloca <4 x float>, align 16
  store <4 x float> %0, ptr %3, align 16, !tbaa !12
  store <4 x float> %1, ptr %4, align 16, !tbaa !12
  %5 = load <4 x float>, ptr %3, align 16, !tbaa !12
  %6 = load <4 x float>, ptr %4, align 16, !tbaa !12
  %7 = fadd <4 x float> %5, %6
  ret <4 x float> %7
}

; Function Attrs: alwaysinline nounwind uwtable
define available_externally <4 x float> @_mm_mul_ps(<4 x float> noundef %0, <4 x float> noundef %1) #2 {
  %3 = alloca <4 x float>, align 16
  %4 = alloca <4 x float>, align 16
  store <4 x float> %0, ptr %3, align 16, !tbaa !12
  store <4 x float> %1, ptr %4, align 16, !tbaa !12
  %5 = load <4 x float>, ptr %3, align 16, !tbaa !12
  %6 = load <4 x float>, ptr %4, align 16, !tbaa !12
  %7 = fmul <4 x float> %5, %6
  ret <4 x float> %7
}

; Function Attrs: alwaysinline nounwind uwtable
define available_externally <4 x float> @_mm_castsi128_ps(<2 x i64> noundef %0) #2 {
  %2 = alloca <2 x i64>, align 16
  store <2 x i64> %0, ptr %2, align 16, !tbaa !12
  %3 = load <2 x i64>, ptr %2, align 16, !tbaa !12
  %4 = bitcast <2 x i64> %3 to <4 x float>
  ret <4 x float> %4
}

; Function Attrs: alwaysinline nounwind uwtable
define available_externally <2 x i64> @_mm_castps_si128(<4 x float> noundef %0) #2 {
  %2 = alloca <4 x float>, align 16
  store <4 x float> %0, ptr %2, align 16, !tbaa !12
  %3 = load <4 x float>, ptr %2, align 16, !tbaa !12
  %4 = bitcast <4 x float> %3 to <2 x i64>
  ret <2 x i64> %4
}

; Function Attrs: alwaysinline nounwind uwtable
define available_externally <4 x float> @_mm_loadu_ps(ptr noundef %0) #2 {
  %2 = alloca ptr, align 8
  store ptr %0, ptr %2, align 8, !tbaa !21
  %3 = load ptr, ptr %2, align 8, !tbaa !21
  %4 = getelementptr inbounds nuw %struct.__loadu_ps, ptr %3, i32 0, i32 0
  %5 = load <4 x float>, ptr %4, align 1, !tbaa !12
  ret <4 x float> %5
}

; Function Attrs: nounwind uwtable
define void @stbir__horizontal_gather_7_channels_with_3_coeffs(ptr noundef %0, i32 noundef %1, ptr noundef %2, ptr noundef %3, ptr noundef %4, i32 noundef %5) #0 {
  %7 = alloca ptr, align 8
  %8 = alloca i32, align 4
  %9 = alloca ptr, align 8
  %10 = alloca ptr, align 8
  %11 = alloca ptr, align 8
  %12 = alloca i32, align 4
  %13 = alloca ptr, align 8
  %14 = alloca ptr, align 8
  %15 = alloca ptr, align 8
  %16 = alloca ptr, align 8
  %17 = alloca <4 x float>, align 16
  %18 = alloca <4 x float>, align 16
  %19 = alloca <4 x float>, align 16
  %20 = alloca <4 x float>, align 16
  store ptr %0, ptr %7, align 8, !tbaa !21
  store i32 %1, ptr %8, align 4, !tbaa !26
  store ptr %2, ptr %9, align 8, !tbaa !21
  store ptr %3, ptr %10, align 8, !tbaa !3
  store ptr %4, ptr %11, align 8, !tbaa !21
  store i32 %5, ptr %12, align 4, !tbaa !26
  call void @llvm.lifetime.start.p0(i64 8, ptr %13) #12
  %21 = load ptr, ptr %7, align 8, !tbaa !21
  %22 = load i32, ptr %8, align 4, !tbaa !26
  %23 = mul i32 %22, 7
  %24 = zext i32 %23 to i64
  %25 = getelementptr inbounds nuw float, ptr %21, i64 %24
  store ptr %25, ptr %13, align 8, !tbaa !21
  call void @llvm.lifetime.start.p0(i64 8, ptr %14) #12
  %26 = load ptr, ptr %7, align 8, !tbaa !21
  store ptr %26, ptr %14, align 8, !tbaa !21
  br label %27

27:                                               ; preds = %107, %6
  call void @llvm.lifetime.start.p0(i64 8, ptr %15) #12
  %28 = load ptr, ptr %9, align 8, !tbaa !21
  %29 = load ptr, ptr %10, align 8, !tbaa !3
  %30 = getelementptr inbounds nuw %struct.stbir__contributors, ptr %29, i32 0, i32 0
  %31 = load i32, ptr %30, align 4, !tbaa !41
  %32 = mul nsw i32 %31, 7
  %33 = sext i32 %32 to i64
  %34 = getelementptr inbounds float, ptr %28, i64 %33
  store ptr %34, ptr %15, align 8, !tbaa !21
  call void @llvm.lifetime.start.p0(i64 8, ptr %16) #12
  %35 = load ptr, ptr %11, align 8, !tbaa !21
  store ptr %35, ptr %16, align 8, !tbaa !21
  call void @llvm.lifetime.start.p0(i64 16, ptr %17) #12
  call void @llvm.lifetime.start.p0(i64 16, ptr %18) #12
  call void @llvm.lifetime.start.p0(i64 16, ptr %19) #12
  call void @llvm.lifetime.start.p0(i64 16, ptr %20) #12
  %36 = load ptr, ptr %15, align 8, !tbaa !21
  call void asm sideeffect "", "r,~{dirflag},~{fpsr},~{flags}"(ptr %36) #12, !srcloc !745
  %37 = load ptr, ptr %16, align 8, !tbaa !21
  %38 = call <4 x float> @_mm_loadu_ps(ptr noundef %37)
  store <4 x float> %38, ptr %20, align 16, !tbaa !12
  %39 = load <4 x float>, ptr %20, align 16, !tbaa !12
  %40 = call <2 x i64> @_mm_castps_si128(<4 x float> noundef %39)
  %41 = bitcast <2 x i64> %40 to <4 x i32>
  %42 = shufflevector <4 x i32> %41, <4 x i32> poison, <4 x i32> zeroinitializer
  %43 = bitcast <4 x i32> %42 to <2 x i64>
  %44 = call <4 x float> @_mm_castsi128_ps(<2 x i64> noundef %43)
  store <4 x float> %44, ptr %19, align 16, !tbaa !12
  %45 = load <4 x float>, ptr %19, align 16, !tbaa !12
  %46 = load ptr, ptr %15, align 8, !tbaa !21
  %47 = call <4 x float> @_mm_loadu_ps(ptr noundef %46)
  %48 = call <4 x float> @_mm_mul_ps(<4 x float> noundef %45, <4 x float> noundef %47)
  store <4 x float> %48, ptr %17, align 16, !tbaa !12
  %49 = load <4 x float>, ptr %19, align 16, !tbaa !12
  %50 = load ptr, ptr %15, align 8, !tbaa !21
  %51 = getelementptr inbounds float, ptr %50, i64 3
  %52 = call <4 x float> @_mm_loadu_ps(ptr noundef %51)
  %53 = call <4 x float> @_mm_mul_ps(<4 x float> noundef %49, <4 x float> noundef %52)
  store <4 x float> %53, ptr %18, align 16, !tbaa !12
  %54 = load <4 x float>, ptr %20, align 16, !tbaa !12
  %55 = call <2 x i64> @_mm_castps_si128(<4 x float> noundef %54)
  %56 = bitcast <2 x i64> %55 to <4 x i32>
  %57 = shufflevector <4 x i32> %56, <4 x i32> poison, <4 x i32> <i32 1, i32 1, i32 1, i32 1>
  %58 = bitcast <4 x i32> %57 to <2 x i64>
  %59 = call <4 x float> @_mm_castsi128_ps(<2 x i64> noundef %58)
  store <4 x float> %59, ptr %19, align 16, !tbaa !12
  %60 = load <4 x float>, ptr %17, align 16, !tbaa !12
  %61 = load <4 x float>, ptr %19, align 16, !tbaa !12
  %62 = load ptr, ptr %15, align 8, !tbaa !21
  %63 = getelementptr inbounds float, ptr %62, i64 7
  %64 = call <4 x float> @_mm_loadu_ps(ptr noundef %63)
  %65 = call <4 x float> @_mm_mul_ps(<4 x float> noundef %61, <4 x float> noundef %64)
  %66 = call <4 x float> @_mm_add_ps(<4 x float> noundef %60, <4 x float> noundef %65)
  store <4 x float> %66, ptr %17, align 16, !tbaa !12
  %67 = load <4 x float>, ptr %18, align 16, !tbaa !12
  %68 = load <4 x float>, ptr %19, align 16, !tbaa !12
  %69 = load ptr, ptr %15, align 8, !tbaa !21
  %70 = getelementptr inbounds float, ptr %69, i64 10
  %71 = call <4 x float> @_mm_loadu_ps(ptr noundef %70)
  %72 = call <4 x float> @_mm_mul_ps(<4 x float> noundef %68, <4 x float> noundef %71)
  %73 = call <4 x float> @_mm_add_ps(<4 x float> noundef %67, <4 x float> noundef %72)
  store <4 x float> %73, ptr %18, align 16, !tbaa !12
  %74 = load <4 x float>, ptr %20, align 16, !tbaa !12
  %75 = call <2 x i64> @_mm_castps_si128(<4 x float> noundef %74)
  %76 = bitcast <2 x i64> %75 to <4 x i32>
  %77 = shufflevector <4 x i32> %76, <4 x i32> poison, <4 x i32> <i32 2, i32 2, i32 2, i32 2>
  %78 = bitcast <4 x i32> %77 to <2 x i64>
  %79 = call <4 x float> @_mm_castsi128_ps(<2 x i64> noundef %78)
  store <4 x float> %79, ptr %19, align 16, !tbaa !12
  %80 = load <4 x float>, ptr %17, align 16, !tbaa !12
  %81 = load <4 x float>, ptr %19, align 16, !tbaa !12
  %82 = load ptr, ptr %15, align 8, !tbaa !21
  %83 = getelementptr inbounds float, ptr %82, i64 14
  %84 = call <4 x float> @_mm_loadu_ps(ptr noundef %83)
  %85 = call <4 x float> @_mm_mul_ps(<4 x float> noundef %81, <4 x float> noundef %84)
  %86 = call <4 x float> @_mm_add_ps(<4 x float> noundef %80, <4 x float> noundef %85)
  store <4 x float> %86, ptr %17, align 16, !tbaa !12
  %87 = load <4 x float>, ptr %18, align 16, !tbaa !12
  %88 = load <4 x float>, ptr %19, align 16, !tbaa !12
  %89 = load ptr, ptr %15, align 8, !tbaa !21
  %90 = getelementptr inbounds float, ptr %89, i64 17
  %91 = call <4 x float> @_mm_loadu_ps(ptr noundef %90)
  %92 = call <4 x float> @_mm_mul_ps(<4 x float> noundef %88, <4 x float> noundef %91)
  %93 = call <4 x float> @_mm_add_ps(<4 x float> noundef %87, <4 x float> noundef %92)
  store <4 x float> %93, ptr %18, align 16, !tbaa !12
  %94 = load ptr, ptr %14, align 8, !tbaa !21
  %95 = getelementptr inbounds float, ptr %94, i64 3
  %96 = load <4 x float>, ptr %18, align 16, !tbaa !12
  call void @_mm_storeu_ps(ptr noundef %95, <4 x float> noundef %96)
  %97 = load ptr, ptr %14, align 8, !tbaa !21
  %98 = load <4 x float>, ptr %17, align 16, !tbaa !12
  call void @_mm_storeu_ps(ptr noundef %97, <4 x float> noundef %98)
  %99 = load i32, ptr %12, align 4, !tbaa !26
  %100 = load ptr, ptr %11, align 8, !tbaa !21
  %101 = sext i32 %99 to i64
  %102 = getelementptr inbounds float, ptr %100, i64 %101
  store ptr %102, ptr %11, align 8, !tbaa !21
  %103 = load ptr, ptr %10, align 8, !tbaa !3
  %104 = getelementptr inbounds nuw %struct.stbir__contributors, ptr %103, i32 1
  store ptr %104, ptr %10, align 8, !tbaa !3
  %105 = load ptr, ptr %14, align 8, !tbaa !21
  %106 = getelementptr inbounds float, ptr %105, i64 7
  store ptr %106, ptr %14, align 8, !tbaa !21
  call void @llvm.lifetime.end.p0(i64 16, ptr %20) #12
  call void @llvm.lifetime.end.p0(i64 16, ptr %19) #12
  call void @llvm.lifetime.end.p0(i64 16, ptr %18) #12
  call void @llvm.lifetime.end.p0(i64 16, ptr %17) #12
  call void @llvm.lifetime.end.p0(i64 8, ptr %16) #12
  call void @llvm.lifetime.end.p0(i64 8, ptr %15) #12
  br label %107

107:                                              ; preds = %27
  %108 = load ptr, ptr %14, align 8, !tbaa !21
  %109 = load ptr, ptr %13, align 8, !tbaa !21
  %110 = icmp ult ptr %108, %109
  br i1 %110, label %27, label %111, !llvm.loop !746

111:                                              ; preds = %107
  call void @llvm.lifetime.end.p0(i64 8, ptr %14) #12
  call void @llvm.lifetime.end.p0(i64 8, ptr %13) #12
  ret void
}