; Function Attrs: nounwind uwtable
define void @stbir__horizontal_gather_7_channels_with_3_coeffs(ptr noundef writeonly captures(address) %0, i32 noundef %1, ptr noundef %2, ptr noundef readonly captures(none) %3, ptr noundef readonly captures(none) %4, i32 noundef %5) #0 {
  %7 = mul i32 %1, 7
  %8 = zext i32 %7 to i64
  %9 = getelementptr inbounds nuw float, ptr %0, i64 %8
  %10 = sext i32 %5 to i64
  br label %11

11:                                               ; preds = %11, %6
  %.037 = phi ptr [ %0, %6 ], [ %44, %11 ]
  %.036 = phi ptr [ %4, %6 ], [ %42, %11 ]
  %.0 = phi ptr [ %3, %6 ], [ %43, %11 ]
  %12 = load i32, ptr %.0, align 4, !tbaa !34
  %13 = mul nsw i32 %12, 7
  %14 = sext i32 %13 to i64
  %15 = getelementptr inbounds float, ptr %2, i64 %14
  tail call void asm sideeffect "", "r,~{dirflag},~{fpsr},~{flags}"(ptr %15) #24, !srcloc !656
  %16 = load <4 x float>, ptr %.036, align 1, !tbaa !4
  %17 = shufflevector <4 x float> %16, <4 x float> poison, <4 x i32> zeroinitializer
  %18 = load <4 x float>, ptr %15, align 1, !tbaa !4
  %19 = fmul <4 x float> %18, %17
  %20 = getelementptr inbounds nuw i8, ptr %15, i64 12
  %21 = load <4 x float>, ptr %20, align 1, !tbaa !4
  %22 = fmul <4 x float> %17, %21
  %23 = shufflevector <4 x float> %16, <4 x float> poison, <4 x i32> <i32 1, i32 1, i32 1, i32 1>
  %24 = getelementptr inbounds nuw i8, ptr %15, i64 28
  %25 = load <4 x float>, ptr %24, align 1, !tbaa !4
  %26 = fmul <4 x float> %23, %25
  %27 = fadd <4 x float> %19, %26
  %28 = getelementptr inbounds nuw i8, ptr %15, i64 40
  %29 = load <4 x float>, ptr %28, align 1, !tbaa !4
  %30 = fmul <4 x float> %23, %29
  %31 = fadd <4 x float> %22, %30
  %32 = shufflevector <4 x float> %16, <4 x float> poison, <4 x i32> <i32 2, i32 2, i32 2, i32 2>
  %33 = getelementptr inbounds nuw i8, ptr %15, i64 56
  %34 = load <4 x float>, ptr %33, align 1, !tbaa !4
  %35 = fmul <4 x float> %32, %34
  %36 = fadd <4 x float> %27, %35
  %37 = getelementptr inbounds nuw i8, ptr %15, i64 68
  %38 = load <4 x float>, ptr %37, align 1, !tbaa !4
  %39 = fmul <4 x float> %32, %38
  %40 = fadd <4 x float> %31, %39
  %41 = getelementptr inbounds nuw i8, ptr %.037, i64 12
  store <4 x float> %40, ptr %41, align 1, !tbaa !4
  store <4 x float> %36, ptr %.037, align 1, !tbaa !4
  %42 = getelementptr inbounds float, ptr %.036, i64 %10
  %43 = getelementptr inbounds nuw i8, ptr %.0, i64 8
  %44 = getelementptr inbounds nuw i8, ptr %.037, i64 28
  %45 = icmp ult ptr %44, %9
  br i1 %45, label %11, label %46, !llvm.loop !657

46:                                               ; preds = %11
  ret void
}